target datalayout = "e-m:e-p270:32:32-p271:32:32-p272:64:64-i64:64-i128:128-f80:128-n8:16:32:64-S128"
target triple = "x86_64-pc-linux-gnu"

%struct.X509_crl_st = type { %struct.X509_crl_info_st, %struct.X509_algor_st, %struct.asn1_string_st, %struct.CRYPTO_REF_COUNT, i32, ptr, ptr, i32, i32, ptr, ptr, ptr, [20 x i8], ptr, ptr, ptr, ptr, ptr }
%struct.X509_crl_info_st = type { ptr, %struct.X509_algor_st, ptr, ptr, ptr, ptr, ptr, %struct.ASN1_ENCODING_st }
%struct.ASN1_ENCODING_st = type { ptr, i64, i32 }
%struct.X509_algor_st = type { ptr, ptr }
%struct.asn1_string_st = type { i32, i32, ptr, i64 }
%struct.CRYPTO_REF_COUNT = type { i32 }

; Function Attrs: nounwind uwtable
define i32 @X509_CRL_set_version(ptr noundef %0, i64 noundef %1) #0 {
  %3 = alloca i32, align 4
  %4 = alloca ptr, align 8
  %5 = alloca i64, align 8
  store ptr %0, ptr %4, align 8, !tbaa !3
  store i64 %1, ptr %5, align 8, !tbaa !8
  %6 = load ptr, ptr %4, align 8, !tbaa !3
  %7 = icmp eq ptr %6, null
  br i1 %7, label %8, label %9

8:                                                ; preds = %2
  store i32 0, ptr %3, align 4
  br label %37

9:                                                ; preds = %2
  %10 = load ptr, ptr %4, align 8, !tbaa !3
  %11 = getelementptr inbounds nuw %struct.X509_crl_st, ptr %10, i32 0, i32 0
  %12 = getelementptr inbounds nuw %struct.X509_crl_info_st, ptr %11, i32 0, i32 0
  %13 = load ptr, ptr %12, align 8, !tbaa !10
  %14 = icmp eq ptr %13, null
  br i1 %14, label %15, label %23

15:                                               ; preds = %9
  %16 = call ptr @ASN1_INTEGER_new()
  %17 = load ptr, ptr %4, align 8, !tbaa !3
  %18 = getelementptr inbounds nuw %struct.X509_crl_st, ptr %17, i32 0, i32 0
  %19 = getelementptr inbounds nuw %struct.X509_crl_info_st, ptr %18, i32 0, i32 0
  store ptr %16, ptr %19, align 8, !tbaa !10
  %20 = icmp eq ptr %16, null
  br i1 %20, label %21, label %22

21:                                               ; preds = %15
  store i32 0, ptr %3, align 4
  br label %37

22:                                               ; preds = %15
  br label %23

23:                                               ; preds = %22, %9
  %24 = load ptr, ptr %4, align 8, !tbaa !3
  %25 = getelementptr inbounds nuw %struct.X509_crl_st, ptr %24, i32 0, i32 0
  %26 = getelementptr inbounds nuw %struct.X509_crl_info_st, ptr %25, i32 0, i32 0
  %27 = load ptr, ptr %26, align 8, !tbaa !10
  %28 = load i64, ptr %5, align 8, !tbaa !8
  %29 = call i32 @ASN1_INTEGER_set(ptr noundef %27, i64 noundef %28)
  %30 = icmp ne i32 %29, 0
  br i1 %30, label %32, label %31

31:                                               ; preds = %23
  store i32 0, ptr %3, align 4
  br label %37

32:                                               ; preds = %23
  %33 = load ptr, ptr %4, align 8, !tbaa !3
  %34 = getelementptr inbounds nuw %struct.X509_crl_st, ptr %33, i32 0, i32 0
  %35 = getelementptr inbounds nuw %struct.X509_crl_info_st, ptr %34, i32 0, i32 7
  %36 = getelementptr inbounds nuw %struct.ASN1_ENCODING_st, ptr %35, i32 0, i32 2
  store i32 1, ptr %36, align 8, !tbaa !30
  store i32 1, ptr %3, align 4
  br label %37

37:                                               ; preds = %32, %31, %21, %8
  %38 = load i32, ptr %3, align 4
  ret i32 %38
}