; Function Attrs: nounwind uwtable
define range(i32 0, 2) i32 @X509_CRL_set_version(ptr noundef captures(address_is_null) %0, i64 noundef %1) local_unnamed_addr #0 {
  %3 = icmp eq ptr %0, null
  br i1 %3, label %15, label %4

4:                                                ; preds = %2
  %5 = load ptr, ptr %0, align 8, !tbaa !3
  %6 = icmp eq ptr %5, null
  br i1 %6, label %7, label %10

7:                                                ; preds = %4
  %8 = tail call ptr @ASN1_INTEGER_new() #6
  store ptr %8, ptr %0, align 8, !tbaa !3
  %9 = icmp eq ptr %8, null
  br i1 %9, label %15, label %10

10:                                               ; preds = %7, %4
  %11 = phi ptr [ %8, %7 ], [ %5, %4 ]
  %12 = tail call i32 @ASN1_INTEGER_set(ptr noundef nonnull %11, i64 noundef %1) #6
  %.not = icmp eq i32 %12, 0
  br i1 %.not, label %15, label %13

13:                                               ; preds = %10
  %14 = getelementptr inbounds nuw i8, ptr %0, i64 80
  store i32 1, ptr %14, align 8, !tbaa !27
  br label %15

15:                                               ; preds = %10, %7, %2, %13
  %.0 = phi i32 [ 1, %13 ], [ 0, %2 ], [ 0, %7 ], [ 0, %10 ]
  ret i32 %.0
}